	.section	__TEXT,__text,regular,pure_instructions
	.macosx_version_min 10, 12
	.globl	_print
	.align	4, 0x90
_print:                                 ## @print
	.cfi_startproc
## BB#0:
	pushq	%rbp
Ltmp0:
	.cfi_def_cfa_offset 16
Ltmp1:
	.cfi_offset %rbp, -16
	movq	%rsp, %rbp
Ltmp2:
	.cfi_def_cfa_register %rbp
	subq	$16, %rsp
	leaq	L_.str(%rip), %rax
	movl	%edi, -4(%rbp)
	movl	-4(%rbp), %esi
	movq	%rax, %rdi
	movb	$0, %al
	callq	_printf
	xorl	%edi, %edi
	movl	%eax, -8(%rbp)          ## 4-byte Spill
	callq	_exit
	.cfi_endproc

	.globl	_plus5
	.align	4, 0x90
_plus5:                                 ## @plus5
	.cfi_startproc
## BB#0:
	pushq	%rbp
Ltmp3:
	.cfi_def_cfa_offset 16
Ltmp4:
	.cfi_offset %rbp, -16
	movq	%rsp, %rbp
Ltmp5:
	.cfi_def_cfa_register %rbp
	movl	%edi, -4(%rbp)
	movl	-4(%rbp), %edi
	addl	$5, %edi
	movl	%edi, %eax
	popq	%rbp
	retq
	.cfi_endproc

	.globl	_main
	.align	4, 0x90
_main:                                  ## @main
	.cfi_startproc
## BB#0:
	pushq	%rbp
Ltmp6:
	.cfi_def_cfa_offset 16
Ltmp7:
	.cfi_offset %rbp, -16
	movq	%rsp, %rbp
Ltmp8:
	.cfi_def_cfa_register %rbp
	subq	$16, %rsp
	leaq	L_.str.1(%rip), %rdi
	leaq	-8(%rbp), %rsi
	movl	$0, -4(%rbp)
	movb	$0, %al
	callq	_scanf
	movl	-8(%rbp), %edi
	movl	%eax, -12(%rbp)         ## 4-byte Spill
	callq	_plus5
	movl	$1, %edi
	movl	%eax, -16(%rbp)         ## 4-byte Spill
	movl	%edi, %eax
	addq	$16, %rsp
	popq	%rbp
	retq
	.cfi_endproc

	.section	__TEXT,__cstring,cstring_literals
L_.str:                                 ## @.str
	.asciz	"%d\n"

L_.str.1:                               ## @.str.1
	.asciz	"%d"


.subsections_via_symbols
